target datalayout = "e-m:e-p270:32:32-p271:32:32-p272:64:64-i64:64-i128:128-f80:128-n8:16:32:64-S128"
target triple = "x86_64-pc-linux-gnu"

%"class.llvm::DWARFFormValue" = type { i16, i8, %"struct.llvm::DWARFFormValue::ValueType", ptr, ptr }
%"struct.llvm::DWARFFormValue::ValueType" = type { %union.anon, ptr, i64 }
%union.anon = type { i64 }

; Function Attrs: mustprogress nounwind uwtable
define linkonce_odr hidden void @_ZN4llvm14DWARFFormValueC2ENS_5dwarf4FormERKNS0_9ValueTypeE(ptr noundef nonnull align 8 dereferenceable(48) %0, i16 noundef zeroext %1, ptr noundef nonnull align 8 dereferenceable(24) %2) unnamed_addr #0 comdat align 2 {
  %4 = alloca ptr, align 8
  %5 = alloca i16, align 2
  %6 = alloca ptr, align 8
  store ptr %0, ptr %4, align 8
  store i16 %1, ptr %5, align 2
  store ptr %2, ptr %6, align 8
  %7 = load ptr, ptr %4, align 8
  %8 = getelementptr inbounds nuw %"class.llvm::DWARFFormValue", ptr %7, i32 0, i32 0
  %9 = load i16, ptr %5, align 2
  store i16 %9, ptr %8, align 8
  %10 = getelementptr inbounds nuw %"class.llvm::DWARFFormValue", ptr %7, i32 0, i32 1
  store i8 0, ptr %10, align 2
  %11 = getelementptr inbounds nuw %"class.llvm::DWARFFormValue", ptr %7, i32 0, i32 2
  %12 = load ptr, ptr %6, align 8
  call void @llvm.memcpy.p0.p0.i64(ptr align 8 %11, ptr align 8 %12, i64 24, i1 false)
  %13 = getelementptr inbounds nuw %"class.llvm::DWARFFormValue", ptr %7, i32 0, i32 3
  store ptr null, ptr %13, align 8
  %14 = getelementptr inbounds nuw %"class.llvm::DWARFFormValue", ptr %7, i32 0, i32 4
  store ptr null, ptr %14, align 8
  ret void
}

; Function Attrs: mustprogress nounwind uwtable
define linkonce_odr hidden void @_ZN4llvm14DWARFFormValue9ValueTypeC2El(ptr noundef nonnull align 8 dereferenceable(24) %0, i64 noundef %1) unnamed_addr #0 comdat align 2 {
  %3 = alloca ptr, align 8
  %4 = alloca i64, align 8
  store ptr %0, ptr %3, align 8
  store i64 %1, ptr %4, align 8
  %5 = load ptr, ptr %3, align 8
  %6 = getelementptr inbounds nuw %"struct.llvm::DWARFFormValue::ValueType", ptr %5, i32 0, i32 0
  %7 = load i64, ptr %4, align 8
  store i64 %7, ptr %6, align 8
  %8 = getelementptr inbounds nuw %"struct.llvm::DWARFFormValue::ValueType", ptr %5, i32 0, i32 1
  store ptr null, ptr %8, align 8
  ret void
}

; Function Attrs: mustprogress nounwind uwtable
define dso_local void @_ZN4llvm14DWARFFormValue16createFromSValueENS_5dwarf4FormEl(ptr dead_on_unwind noalias writable sret(%"class.llvm::DWARFFormValue") align 8 %0, i16 noundef zeroext %1, i64 noundef %2) #0 align 2 {
  %4 = alloca i16, align 2
  %5 = alloca i64, align 8
  %6 = alloca %"struct.llvm::DWARFFormValue::ValueType", align 8
  store i16 %1, ptr %4, align 2
  store i64 %2, ptr %5, align 8
  %7 = load i16, ptr %4, align 2
  %8 = load i64, ptr %5, align 8
  call void @_ZN4llvm14DWARFFormValue9ValueTypeC2El(ptr noundef nonnull align 8 dereferenceable(24) %6, i64 noundef %8)
  call void @_ZN4llvm14DWARFFormValueC2ENS_5dwarf4FormERKNS0_9ValueTypeE(ptr noundef nonnull align 8 dereferenceable(48) %0, i16 noundef zeroext %7, ptr noundef nonnull align 8 dereferenceable(24) %6)
  ret void
}