; Function Attrs: mustprogress nofree norecurse nosync nounwind willreturn memory(argmem: write) uwtable
define dso_local void @_ZN4llvm14DWARFFormValue16createFromSValueENS_5dwarf4FormEl(ptr dead_on_unwind noalias nocapture writable writeonly sret(%"class.llvm::DWARFFormValue") align 8 %0, i16 noundef zeroext %1, i64 noundef %2) local_unnamed_addr #0 align 2 {
  store i16 %1, ptr %0, align 8
  %4 = getelementptr inbounds nuw i8, ptr %0, i64 2
  store i8 0, ptr %4, align 2
  %5 = getelementptr inbounds nuw i8, ptr %0, i64 8
  store i64 %2, ptr %5, align 8
  %.sroa.2.0..sroa_idx = getelementptr inbounds i8, ptr %0, i64 16
  store ptr null, ptr %.sroa.2.0..sroa_idx, align 8
  %6 = getelementptr inbounds nuw i8, ptr %0, i64 32
  tail call void @llvm.memset.p0.i64(ptr noundef nonnull align 8 dereferenceable(16) %6, i8 0, i64 16, i1 false)
  ret void
}